target datalayout = "e-m:e-p270:32:32-p271:32:32-p272:64:64-i64:64-i128:128-f80:128-n8:16:32:64-S128"
target triple = "x86_64-unknown-linux-gnu"

%struct.email_key_mapping = type { ptr, ptr }
%struct.grpc_jwt_verifier = type { ptr, i64, i64 }

@.str.15 = private unnamed_addr constant [141 x i8] c"generated/home/dtcxzyw/WorkSpace/Projects/compilers/llvm-opt-benchmark/bench/grpc/grpc/src/core/lib/security/credentials/jwt/jwt_verifier.cc\00", align 1
@.str.85 = private unnamed_addr constant [40 x i8] c"v->num_mappings < v->allocated_mappings\00", align 1
@.str.86 = private unnamed_addr constant [41 x i8] c"v->num_mappings <= v->allocated_mappings\00", align 1

; Function Attrs: mustprogress nounwind uwtable
define internal noundef ptr @_ZL20verifier_get_mappingP17grpc_jwt_verifierPKc(ptr noundef %v, ptr noundef %email_domain) #4 {
entry:
  %retval = alloca ptr, align 8
  %v.addr = alloca ptr, align 8
  %email_domain.addr = alloca ptr, align 8
  %i = alloca i64, align 8
  store ptr %v, ptr %v.addr, align 8
  store ptr %email_domain, ptr %email_domain.addr, align 8
  %0 = load ptr, ptr %v.addr, align 8
  %mappings = getelementptr inbounds %struct.grpc_jwt_verifier, ptr %0, i32 0, i32 0
  %1 = load ptr, ptr %mappings, align 8
  %cmp = icmp eq ptr %1, null
  br i1 %cmp, label %if.then, label %if.end

if.then:                                          ; preds = %entry
  store ptr null, ptr %retval, align 8
  br label %return

if.end:                                           ; preds = %entry
  store i64 0, ptr %i, align 8
  br label %for.cond

for.cond:                                         ; preds = %for.inc, %if.end
  %2 = load i64, ptr %i, align 8
  %3 = load ptr, ptr %v.addr, align 8
  %num_mappings = getelementptr inbounds %struct.grpc_jwt_verifier, ptr %3, i32 0, i32 1
  %4 = load i64, ptr %num_mappings, align 8
  %cmp1 = icmp ult i64 %2, %4
  br i1 %cmp1, label %for.body, label %for.end

for.body:                                         ; preds = %for.cond
  %5 = load ptr, ptr %email_domain.addr, align 8
  %6 = load ptr, ptr %v.addr, align 8
  %mappings2 = getelementptr inbounds %struct.grpc_jwt_verifier, ptr %6, i32 0, i32 0
  %7 = load ptr, ptr %mappings2, align 8
  %8 = load i64, ptr %i, align 8
  %arrayidx = getelementptr inbounds %struct.email_key_mapping, ptr %7, i64 %8
  %email_domain3 = getelementptr inbounds %struct.email_key_mapping, ptr %arrayidx, i32 0, i32 0
  %9 = load ptr, ptr %email_domain3, align 8
  %call = call i32 @strcmp(ptr noundef %5, ptr noundef %9) #16
  %cmp4 = icmp eq i32 %call, 0
  br i1 %cmp4, label %if.then5, label %if.end8

if.then5:                                         ; preds = %for.body
  %10 = load ptr, ptr %v.addr, align 8
  %mappings6 = getelementptr inbounds %struct.grpc_jwt_verifier, ptr %10, i32 0, i32 0
  %11 = load ptr, ptr %mappings6, align 8
  %12 = load i64, ptr %i, align 8
  %arrayidx7 = getelementptr inbounds %struct.email_key_mapping, ptr %11, i64 %12
  store ptr %arrayidx7, ptr %retval, align 8
  br label %return

if.end8:                                          ; preds = %for.body
  br label %for.inc

for.inc:                                          ; preds = %if.end8
  %13 = load i64, ptr %i, align 8
  %inc = add i64 %13, 1
  store i64 %inc, ptr %i, align 8
  br label %for.cond, !llvm.loop !11

for.end:                                          ; preds = %for.cond
  store ptr null, ptr %retval, align 8
  br label %return

return:                                           ; preds = %for.end, %if.then5, %if.then
  %14 = load ptr, ptr %retval, align 8
  ret ptr %14
}

; Function Attrs: mustprogress uwtable
define internal void @_ZL20verifier_put_mappingP17grpc_jwt_verifierPKcS2_(ptr noundef %v, ptr noundef %email_domain, ptr noundef %key_url_prefix) #5 {
entry:
  %v.addr = alloca ptr, align 8
  %email_domain.addr = alloca ptr, align 8
  %key_url_prefix.addr = alloca ptr, align 8
  %mapping = alloca ptr, align 8
  store ptr %v, ptr %v.addr, align 8
  store ptr %email_domain, ptr %email_domain.addr, align 8
  store ptr %key_url_prefix, ptr %key_url_prefix.addr, align 8
  %0 = load ptr, ptr %v.addr, align 8
  %1 = load ptr, ptr %email_domain.addr, align 8
  %call = call noundef ptr @_ZL20verifier_get_mappingP17grpc_jwt_verifierPKc(ptr noundef %0, ptr noundef %1)
  store ptr %call, ptr %mapping, align 8
  br label %do.body

do.body:                                          ; preds = %entry
  %2 = load ptr, ptr %v.addr, align 8
  %num_mappings = getelementptr inbounds %struct.grpc_jwt_verifier, ptr %2, i32 0, i32 1
  %3 = load i64, ptr %num_mappings, align 8
  %4 = load ptr, ptr %v.addr, align 8
  %allocated_mappings = getelementptr inbounds %struct.grpc_jwt_verifier, ptr %4, i32 0, i32 2
  %5 = load i64, ptr %allocated_mappings, align 8
  %cmp = icmp ult i64 %3, %5
  %lnot = xor i1 %cmp, true
  br i1 %lnot, label %if.then, label %if.end

if.then:                                          ; preds = %do.body
  call void @gpr_assertion_failed(ptr noundef @.str.15, i32 noundef 807, ptr noundef @.str.85) #17
  unreachable

if.end:                                           ; preds = %do.body
  br label %do.end

do.end:                                           ; preds = %if.end
  %6 = load ptr, ptr %mapping, align 8
  %cmp1 = icmp ne ptr %6, null
  br i1 %cmp1, label %if.then2, label %if.end6

if.then2:                                         ; preds = %do.end
  %7 = load ptr, ptr %mapping, align 8
  %key_url_prefix3 = getelementptr inbounds %struct.email_key_mapping, ptr %7, i32 0, i32 1
  %8 = load ptr, ptr %key_url_prefix3, align 8
  call void @gpr_free(ptr noundef %8)
  %9 = load ptr, ptr %key_url_prefix.addr, align 8
  %call4 = call ptr @gpr_strdup(ptr noundef %9)
  %10 = load ptr, ptr %mapping, align 8
  %key_url_prefix5 = getelementptr inbounds %struct.email_key_mapping, ptr %10, i32 0, i32 1
  store ptr %call4, ptr %key_url_prefix5, align 8
  br label %do.end23

if.end6:                                          ; preds = %do.end
  %11 = load ptr, ptr %email_domain.addr, align 8
  %call7 = call ptr @gpr_strdup(ptr noundef %11)
  %12 = load ptr, ptr %v.addr, align 8
  %mappings = getelementptr inbounds %struct.grpc_jwt_verifier, ptr %12, i32 0, i32 0
  %13 = load ptr, ptr %mappings, align 8
  %14 = load ptr, ptr %v.addr, align 8
  %num_mappings8 = getelementptr inbounds %struct.grpc_jwt_verifier, ptr %14, i32 0, i32 1
  %15 = load i64, ptr %num_mappings8, align 8
  %arrayidx = getelementptr inbounds %struct.email_key_mapping, ptr %13, i64 %15
  %email_domain9 = getelementptr inbounds %struct.email_key_mapping, ptr %arrayidx, i32 0, i32 0
  store ptr %call7, ptr %email_domain9, align 8
  %16 = load ptr, ptr %key_url_prefix.addr, align 8
  %call10 = call ptr @gpr_strdup(ptr noundef %16)
  %17 = load ptr, ptr %v.addr, align 8
  %mappings11 = getelementptr inbounds %struct.grpc_jwt_verifier, ptr %17, i32 0, i32 0
  %18 = load ptr, ptr %mappings11, align 8
  %19 = load ptr, ptr %v.addr, align 8
  %num_mappings12 = getelementptr inbounds %struct.grpc_jwt_verifier, ptr %19, i32 0, i32 1
  %20 = load i64, ptr %num_mappings12, align 8
  %arrayidx13 = getelementptr inbounds %struct.email_key_mapping, ptr %18, i64 %20
  %key_url_prefix14 = getelementptr inbounds %struct.email_key_mapping, ptr %arrayidx13, i32 0, i32 1
  store ptr %call10, ptr %key_url_prefix14, align 8
  %21 = load ptr, ptr %v.addr, align 8
  %num_mappings15 = getelementptr inbounds %struct.grpc_jwt_verifier, ptr %21, i32 0, i32 1
  %22 = load i64, ptr %num_mappings15, align 8
  %inc = add i64 %22, 1
  store i64 %inc, ptr %num_mappings15, align 8
  br label %do.body16

do.body16:                                        ; preds = %if.end6
  %23 = load ptr, ptr %v.addr, align 8
  %num_mappings17 = getelementptr inbounds %struct.grpc_jwt_verifier, ptr %23, i32 0, i32 1
  %24 = load i64, ptr %num_mappings17, align 8
  %25 = load ptr, ptr %v.addr, align 8
  %allocated_mappings18 = getelementptr inbounds %struct.grpc_jwt_verifier, ptr %25, i32 0, i32 2
  %26 = load i64, ptr %allocated_mappings18, align 8
  %cmp19 = icmp ule i64 %24, %26
  %lnot20 = xor i1 %cmp19, true
  br i1 %lnot20, label %if.then21, label %if.end22

if.then21:                                        ; preds = %do.body16
  call void @gpr_assertion_failed(ptr noundef @.str.15, i32 noundef 816, ptr noundef @.str.86) #17
  unreachable

if.end22:                                         ; preds = %do.body16
  br label %do.end23

do.end23:                                         ; preds = %if.end22, %if.then2
  ret void
}