; Function Attrs: mustprogress uwtable
define internal fastcc void @_ZL20verifier_put_mappingP17grpc_jwt_verifierPKcS2_(ptr nocapture noundef %v, ptr noundef %email_domain, ptr noundef %key_url_prefix) unnamed_addr #4 {
entry:
  %0 = load ptr, ptr %v, align 8
  %cmp.i = icmp eq ptr %0, null
  %num_mappings.phi.trans.insert = getelementptr inbounds i8, ptr %v, i64 8
  %.pre = load i64, ptr %num_mappings.phi.trans.insert, align 8
  br i1 %cmp.i, label %_ZL20verifier_get_mappingP17grpc_jwt_verifierPKc.exit, label %for.cond.preheader.i

for.cond.preheader.i:                             ; preds = %entry
  %cmp17.not.i = icmp eq i64 %.pre, 0
  br i1 %cmp17.not.i, label %_ZL20verifier_get_mappingP17grpc_jwt_verifierPKc.exit, label %for.body.i

for.cond.i:                                       ; preds = %for.body.i
  %inc.i = add nuw i64 %i.08.i, 1
  %exitcond.not.i = icmp eq i64 %inc.i, %.pre
  br i1 %exitcond.not.i, label %_ZL20verifier_get_mappingP17grpc_jwt_verifierPKc.exit, label %for.body.i, !llvm.loop !7

for.body.i:                                       ; preds = %for.cond.preheader.i, %for.cond.i
  %i.08.i = phi i64 [ %inc.i, %for.cond.i ], [ 0, %for.cond.preheader.i ]
  %arrayidx.i = getelementptr inbounds %struct.email_key_mapping, ptr %0, i64 %i.08.i
  %1 = load ptr, ptr %arrayidx.i, align 8
  %call.i = tail call i32 @strcmp(ptr noundef nonnull dereferenceable(1) %email_domain, ptr noundef nonnull dereferenceable(1) %1) #26
  %cmp4.i = icmp eq i32 %call.i, 0
  br i1 %cmp4.i, label %_ZL20verifier_get_mappingP17grpc_jwt_verifierPKc.exit, label %for.cond.i

_ZL20verifier_get_mappingP17grpc_jwt_verifierPKc.exit: ; preds = %for.cond.i, %for.body.i, %entry, %for.cond.preheader.i
  %2 = phi i64 [ 0, %for.cond.preheader.i ], [ %.pre, %entry ], [ %.pre, %for.body.i ], [ %.pre, %for.cond.i ]
  %retval.0.i = phi ptr [ null, %for.cond.preheader.i ], [ null, %entry ], [ null, %for.cond.i ], [ %arrayidx.i, %for.body.i ]
  %num_mappings = getelementptr inbounds i8, ptr %v, i64 8
  %allocated_mappings = getelementptr inbounds i8, ptr %v, i64 16
  %3 = load i64, ptr %allocated_mappings, align 8
  %cmp.not = icmp ult i64 %2, %3
  br i1 %cmp.not, label %do.end, label %if.then

if.then:                                          ; preds = %_ZL20verifier_get_mappingP17grpc_jwt_verifierPKc.exit
  tail call void @gpr_assertion_failed(ptr noundef nonnull @.str.15, i32 noundef 807, ptr noundef nonnull @.str.85) #25
  unreachable

do.end:                                           ; preds = %_ZL20verifier_get_mappingP17grpc_jwt_verifierPKc.exit
  %cmp1.not = icmp eq ptr %retval.0.i, null
  br i1 %cmp1.not, label %if.end6, label %if.then2

if.then2:                                         ; preds = %do.end
  %key_url_prefix3 = getelementptr inbounds i8, ptr %retval.0.i, i64 8
  %4 = load ptr, ptr %key_url_prefix3, align 8
  tail call void @gpr_free(ptr noundef %4)
  %call4 = tail call ptr @gpr_strdup(ptr noundef %key_url_prefix)
  store ptr %call4, ptr %key_url_prefix3, align 8
  br label %do.end23

if.end6:                                          ; preds = %do.end
  %call7 = tail call ptr @gpr_strdup(ptr noundef %email_domain)
  %5 = load ptr, ptr %v, align 8
  %6 = load i64, ptr %num_mappings, align 8
  %arrayidx = getelementptr inbounds %struct.email_key_mapping, ptr %5, i64 %6
  store ptr %call7, ptr %arrayidx, align 8
  %call10 = tail call ptr @gpr_strdup(ptr noundef %key_url_prefix)
  %7 = load ptr, ptr %v, align 8
  %8 = load i64, ptr %num_mappings, align 8
  %key_url_prefix14 = getelementptr inbounds %struct.email_key_mapping, ptr %7, i64 %8, i32 1
  store ptr %call10, ptr %key_url_prefix14, align 8
  %9 = load i64, ptr %num_mappings, align 8
  %inc = add i64 %9, 1
  store i64 %inc, ptr %num_mappings, align 8
  %10 = load i64, ptr %allocated_mappings, align 8
  %cmp19.not = icmp ugt i64 %inc, %10
  br i1 %cmp19.not, label %if.then21, label %do.end23

if.then21:                                        ; preds = %if.end6
  tail call void @gpr_assertion_failed(ptr noundef nonnull @.str.15, i32 noundef 816, ptr noundef nonnull @.str.86) #25
  unreachable

do.end23:                                         ; preds = %if.end6, %if.then2
  ret void
}